target datalayout = "e-m:e-p270:32:32-p271:32:32-p272:64:64-i64:64-i128:128-f80:128-n8:16:32:64-S128"
target triple = "x86_64-pc-linux-gnu"

%struct.rb_shape_tree_t = type { ptr, ptr, i32, ptr, i32 }
%struct.rb_shape = type { ptr, i64, i32, i32, i8, i8, i32, ptr }
%struct.redblack_node = type { i64, ptr, i32, i32 }

@rb_shape_tree_ptr = hidden global ptr null, align 8
@.str.5 = private unnamed_addr constant [36 x i8] c"Ivar should not exist on transition\00", align 1

; Function Attrs: inlinehint nounwind sspstrong uwtable
define internal ptr @rb_current_shape_tree() #1 {
  %1 = load ptr, ptr @rb_shape_tree_ptr, align 8, !tbaa !15
  ret ptr %1
}

; Function Attrs: nounwind sspstrong uwtable
define hidden ptr @rb_shape_get_shape_by_id(i32 noundef %0) #0 {
  %2 = alloca i32, align 4
  %3 = alloca ptr, align 8
  store i32 %0, ptr %2, align 4, !tbaa !21
  call void @llvm.lifetime.start.p0(i64 8, ptr %3) #14
  %4 = call ptr @rb_current_shape_tree()
  %5 = getelementptr inbounds nuw %struct.rb_shape_tree_t, ptr %4, i32 0, i32 0
  %6 = load ptr, ptr %5, align 8, !tbaa !17
  %7 = load i32, ptr %2, align 4, !tbaa !21
  %8 = zext i32 %7 to i64
  %9 = getelementptr %struct.rb_shape, ptr %6, i64 %8
  store ptr %9, ptr %3, align 8, !tbaa !16
  %10 = load ptr, ptr %3, align 8, !tbaa !16
  call void @llvm.lifetime.end.p0(i64 8, ptr %3) #14
  ret ptr %10
}

; Function Attrs: nounwind sspstrong uwtable
define internal ptr @redblack_right(ptr noundef %0) #0 {
  %2 = alloca ptr, align 8
  %3 = alloca ptr, align 8
  %4 = alloca ptr, align 8
  store ptr %0, ptr %3, align 8, !tbaa !61
  %5 = load ptr, ptr %3, align 8, !tbaa !61
  %6 = getelementptr inbounds nuw %struct.redblack_node, ptr %5, i32 0, i32 3
  %7 = load i32, ptr %6, align 4, !tbaa !78
  %8 = icmp eq i32 %7, 0
  br i1 %8, label %9, label %10

9:                                                ; preds = %1
  store ptr null, ptr %2, align 8
  br label %21

10:                                               ; preds = %1
  call void @llvm.lifetime.start.p0(i64 8, ptr %4) #14
  %11 = call ptr @rb_current_shape_tree()
  %12 = getelementptr inbounds nuw %struct.rb_shape_tree_t, ptr %11, i32 0, i32 3
  %13 = load ptr, ptr %12, align 8, !tbaa !63
  %14 = load ptr, ptr %3, align 8, !tbaa !61
  %15 = getelementptr inbounds nuw %struct.redblack_node, ptr %14, i32 0, i32 3
  %16 = load i32, ptr %15, align 4, !tbaa !78
  %17 = sub i32 %16, 1
  %18 = zext i32 %17 to i64
  %19 = getelementptr %struct.redblack_node, ptr %13, i64 %18
  store ptr %19, ptr %4, align 8, !tbaa !61
  %20 = load ptr, ptr %4, align 8, !tbaa !61
  store ptr %20, ptr %2, align 8
  call void @llvm.lifetime.end.p0(i64 8, ptr %4) #14
  br label %21

21:                                               ; preds = %10, %9
  %22 = load ptr, ptr %2, align 8
  ret ptr %22
}

; Function Attrs: nounwind sspstrong uwtable
define internal ptr @redblack_left(ptr noundef %0) #0 {
  %2 = alloca ptr, align 8
  %3 = alloca ptr, align 8
  %4 = alloca ptr, align 8
  store ptr %0, ptr %3, align 8, !tbaa !61
  %5 = load ptr, ptr %3, align 8, !tbaa !61
  %6 = getelementptr inbounds nuw %struct.redblack_node, ptr %5, i32 0, i32 2
  %7 = load i32, ptr %6, align 8, !tbaa !77
  %8 = icmp eq i32 %7, 0
  br i1 %8, label %9, label %10

9:                                                ; preds = %1
  store ptr null, ptr %2, align 8
  br label %21

10:                                               ; preds = %1
  call void @llvm.lifetime.start.p0(i64 8, ptr %4) #14
  %11 = call ptr @rb_current_shape_tree()
  %12 = getelementptr inbounds nuw %struct.rb_shape_tree_t, ptr %11, i32 0, i32 3
  %13 = load ptr, ptr %12, align 8, !tbaa !63
  %14 = load ptr, ptr %3, align 8, !tbaa !61
  %15 = getelementptr inbounds nuw %struct.redblack_node, ptr %14, i32 0, i32 2
  %16 = load i32, ptr %15, align 8, !tbaa !77
  %17 = sub i32 %16, 1
  %18 = zext i32 %17 to i64
  %19 = getelementptr %struct.redblack_node, ptr %13, i64 %18
  store ptr %19, ptr %4, align 8, !tbaa !61
  %20 = load ptr, ptr %4, align 8, !tbaa !61
  store ptr %20, ptr %2, align 8
  call void @llvm.lifetime.end.p0(i64 8, ptr %4) #14
  br label %21

21:                                               ; preds = %10, %9
  %22 = load ptr, ptr %2, align 8
  ret ptr %22
}

; Function Attrs: nounwind sspstrong uwtable
define hidden ptr @rb_shape_get_parent(ptr noundef %0) #0 {
  %2 = alloca ptr, align 8
  store ptr %0, ptr %2, align 8, !tbaa !16
  %3 = load ptr, ptr %2, align 8, !tbaa !16
  %4 = getelementptr inbounds nuw %struct.rb_shape, ptr %3, i32 0, i32 6
  %5 = load i32, ptr %4, align 4, !tbaa !22
  %6 = call ptr @rb_shape_get_shape_by_id(i32 noundef %5)
  ret ptr %6
}

; Function Attrs: inlinehint nounwind sspstrong uwtable
define internal ptr @redblack_value(ptr noundef %0) #1 {
  %2 = alloca ptr, align 8
  store ptr %0, ptr %2, align 8, !tbaa !61
  %3 = load ptr, ptr %2, align 8, !tbaa !61
  %4 = getelementptr inbounds nuw %struct.redblack_node, ptr %3, i32 0, i32 1
  %5 = load ptr, ptr %4, align 8, !tbaa !76
  %6 = ptrtoint ptr %5 to i64
  %7 = and i64 %6, -2
  %8 = inttoptr i64 %7 to ptr
  ret ptr %8
}

; Function Attrs: nounwind sspstrong uwtable
define internal ptr @redblack_find(ptr noundef %0, i64 noundef %1) #0 {
  %3 = alloca ptr, align 8
  %4 = alloca ptr, align 8
  %5 = alloca i64, align 8
  store ptr %0, ptr %4, align 8, !tbaa !61
  store i64 %1, ptr %5, align 8, !tbaa !26
  %6 = load ptr, ptr %4, align 8, !tbaa !61
  %7 = icmp eq ptr %6, null
  br i1 %7, label %8, label %9

8:                                                ; preds = %2
  store ptr null, ptr %3, align 8
  br label %33

9:                                                ; preds = %2
  %10 = load ptr, ptr %4, align 8, !tbaa !61
  %11 = getelementptr inbounds nuw %struct.redblack_node, ptr %10, i32 0, i32 0
  %12 = load i64, ptr %11, align 8, !tbaa !74
  %13 = load i64, ptr %5, align 8, !tbaa !26
  %14 = icmp eq i64 %12, %13
  br i1 %14, label %15, label %17

15:                                               ; preds = %9
  %16 = load ptr, ptr %4, align 8, !tbaa !61
  store ptr %16, ptr %3, align 8
  br label %33

17:                                               ; preds = %9
  %18 = load i64, ptr %5, align 8, !tbaa !26
  %19 = load ptr, ptr %4, align 8, !tbaa !61
  %20 = getelementptr inbounds nuw %struct.redblack_node, ptr %19, i32 0, i32 0
  %21 = load i64, ptr %20, align 8, !tbaa !74
  %22 = icmp ult i64 %18, %21
  br i1 %22, label %23, label %28

23:                                               ; preds = %17
  %24 = load ptr, ptr %4, align 8, !tbaa !61
  %25 = call ptr @redblack_left(ptr noundef %24)
  %26 = load i64, ptr %5, align 8, !tbaa !26
  %27 = call ptr @redblack_find(ptr noundef %25, i64 noundef %26)
  store ptr %27, ptr %3, align 8
  br label %33

28:                                               ; preds = %17
  %29 = load ptr, ptr %4, align 8, !tbaa !61
  %30 = call ptr @redblack_right(ptr noundef %29)
  %31 = load i64, ptr %5, align 8, !tbaa !26
  %32 = call ptr @redblack_find(ptr noundef %30, i64 noundef %31)
  store ptr %32, ptr %3, align 8
  br label %33

33:                                               ; preds = %28, %23, %15, %8
  %34 = load ptr, ptr %3, align 8
  ret ptr %34
}

; Function Attrs: nounwind sspstrong uwtable
define internal zeroext i1 @shape_get_iv_index(ptr noundef %0, i64 noundef %1, ptr noundef %2) #0 {
  %4 = alloca i1, align 1
  %5 = alloca ptr, align 8
  %6 = alloca i64, align 8
  %7 = alloca ptr, align 8
  %8 = alloca i32, align 4
  %9 = alloca i32, align 4
  store ptr %0, ptr %5, align 8, !tbaa !16
  store i64 %1, ptr %6, align 8, !tbaa !26
  store ptr %2, ptr %7, align 8, !tbaa !56
  br label %10

10:                                               ; preds = %40, %3
  %11 = load ptr, ptr %5, align 8, !tbaa !16
  %12 = getelementptr inbounds nuw %struct.rb_shape, ptr %11, i32 0, i32 6
  %13 = load i32, ptr %12, align 4, !tbaa !22
  %14 = zext i32 %13 to i64
  %15 = icmp ne i64 %14, 4294967295
  br i1 %15, label %16, label %43

16:                                               ; preds = %10
  %17 = load ptr, ptr %5, align 8, !tbaa !16
  %18 = getelementptr inbounds nuw %struct.rb_shape, ptr %17, i32 0, i32 1
  %19 = load i64, ptr %18, align 8, !tbaa !43
  %20 = load i64, ptr %6, align 8, !tbaa !26
  %21 = icmp eq i64 %19, %20
  br i1 %21, label %22, label %40

22:                                               ; preds = %16
  call void @llvm.lifetime.start.p0(i64 4, ptr %8) #14
  %23 = load ptr, ptr %5, align 8, !tbaa !16
  %24 = getelementptr inbounds nuw %struct.rb_shape, ptr %23, i32 0, i32 4
  %25 = load i8, ptr %24, align 8, !tbaa !28
  %26 = zext i8 %25 to i32
  store i32 %26, ptr %8, align 4, !tbaa !21
  %27 = load i32, ptr %8, align 4, !tbaa !21
  switch i32 %27, label %36 [
    i32 1, label %28
    i32 0, label %34
    i32 3, label %34
    i32 4, label %35
    i32 2, label %35
  ]

28:                                               ; preds = %22
  %29 = load ptr, ptr %5, align 8, !tbaa !16
  %30 = getelementptr inbounds nuw %struct.rb_shape, ptr %29, i32 0, i32 2
  %31 = load i32, ptr %30, align 8, !tbaa !40
  %32 = sub i32 %31, 1
  %33 = load ptr, ptr %7, align 8, !tbaa !56
  store i32 %32, ptr %33, align 4, !tbaa !21
  store i1 true, ptr %4, align 1
  store i32 1, ptr %9, align 4
  br label %37

34:                                               ; preds = %22, %22
  store i1 false, ptr %4, align 1
  store i32 1, ptr %9, align 4
  br label %37

35:                                               ; preds = %22, %22
  call void (ptr, ...) @rb_bug(ptr noundef @.str.5) #19
  unreachable

36:                                               ; preds = %22
  store i32 0, ptr %9, align 4
  br label %37

37:                                               ; preds = %36, %34, %28
  call void @llvm.lifetime.end.p0(i64 4, ptr %8) #14
  %38 = load i32, ptr %9, align 4
  switch i32 %38, label %46 [
    i32 0, label %39
    i32 1, label %44
  ]

39:                                               ; preds = %37
  br label %40

40:                                               ; preds = %39, %16
  %41 = load ptr, ptr %5, align 8, !tbaa !16
  %42 = call ptr @rb_shape_get_parent(ptr noundef %41)
  store ptr %42, ptr %5, align 8, !tbaa !16
  br label %10, !llvm.loop !62

43:                                               ; preds = %10
  store i1 false, ptr %4, align 1
  br label %44

44:                                               ; preds = %43, %37
  %45 = load i1, ptr %4, align 1
  ret i1 %45

46:                                               ; preds = %37
  unreachable
}

; Function Attrs: nounwind sspstrong uwtable
define internal zeroext i1 @shape_cache_get_iv_index(ptr noundef %0, i64 noundef %1, ptr noundef %2) #0 {
  %4 = alloca i1, align 1
  %5 = alloca ptr, align 8
  %6 = alloca i64, align 8
  %7 = alloca ptr, align 8
  %8 = alloca ptr, align 8
  %9 = alloca ptr, align 8
  %10 = alloca i32, align 4
  store ptr %0, ptr %5, align 8, !tbaa !16
  store i64 %1, ptr %6, align 8, !tbaa !26
  store ptr %2, ptr %7, align 8, !tbaa !56
  %11 = load ptr, ptr %5, align 8, !tbaa !16
  %12 = getelementptr inbounds nuw %struct.rb_shape, ptr %11, i32 0, i32 7
  %13 = load ptr, ptr %12, align 8, !tbaa !58
  %14 = icmp ne ptr %13, null
  br i1 %14, label %15, label %40

15:                                               ; preds = %3
  %16 = load ptr, ptr %5, align 8, !tbaa !16
  %17 = getelementptr inbounds nuw %struct.rb_shape, ptr %16, i32 0, i32 2
  %18 = load i32, ptr %17, align 8, !tbaa !40
  %19 = icmp uge i32 %18, 10
  br i1 %19, label %20, label %40

20:                                               ; preds = %15
  call void @llvm.lifetime.start.p0(i64 8, ptr %8) #14
  %21 = load ptr, ptr %5, align 8, !tbaa !16
  %22 = getelementptr inbounds nuw %struct.rb_shape, ptr %21, i32 0, i32 7
  %23 = load ptr, ptr %22, align 8, !tbaa !58
  %24 = load i64, ptr %6, align 8, !tbaa !26
  %25 = call ptr @redblack_find(ptr noundef %23, i64 noundef %24)
  store ptr %25, ptr %8, align 8, !tbaa !61
  %26 = load ptr, ptr %8, align 8, !tbaa !61
  %27 = icmp ne ptr %26, null
  br i1 %27, label %28, label %36

28:                                               ; preds = %20
  call void @llvm.lifetime.start.p0(i64 8, ptr %9) #14
  %29 = load ptr, ptr %8, align 8, !tbaa !61
  %30 = call ptr @redblack_value(ptr noundef %29)
  store ptr %30, ptr %9, align 8, !tbaa !16
  %31 = load ptr, ptr %9, align 8, !tbaa !16
  %32 = getelementptr inbounds nuw %struct.rb_shape, ptr %31, i32 0, i32 2
  %33 = load i32, ptr %32, align 8, !tbaa !40
  %34 = sub i32 %33, 1
  %35 = load ptr, ptr %7, align 8, !tbaa !56
  store i32 %34, ptr %35, align 4, !tbaa !21
  store i1 true, ptr %4, align 1
  store i32 1, ptr %10, align 4
  call void @llvm.lifetime.end.p0(i64 8, ptr %9) #14
  br label %37

36:                                               ; preds = %20
  store i32 0, ptr %10, align 4
  br label %37

37:                                               ; preds = %36, %28
  call void @llvm.lifetime.end.p0(i64 8, ptr %8) #14
  %38 = load i32, ptr %10, align 4
  switch i32 %38, label %43 [
    i32 0, label %39
    i32 1, label %41
  ]

39:                                               ; preds = %37
  br label %40

40:                                               ; preds = %39, %15, %3
  store i1 false, ptr %4, align 1
  br label %41

41:                                               ; preds = %40, %37
  %42 = load i1, ptr %4, align 1
  ret i1 %42

43:                                               ; preds = %37
  unreachable
}

; Function Attrs: nounwind sspstrong uwtable
define hidden zeroext i1 @rb_shape_get_iv_index(ptr noundef %0, i64 noundef %1, ptr noundef %2) #0 {
  %4 = alloca i1, align 1
  %5 = alloca ptr, align 8
  %6 = alloca i64, align 8
  %7 = alloca ptr, align 8
  store ptr %0, ptr %5, align 8, !tbaa !16
  store i64 %1, ptr %6, align 8, !tbaa !26
  store ptr %2, ptr %7, align 8, !tbaa !56
  %8 = load ptr, ptr %5, align 8, !tbaa !16
  %9 = load i64, ptr %6, align 8, !tbaa !26
  %10 = load ptr, ptr %7, align 8, !tbaa !56
  %11 = call zeroext i1 @shape_cache_get_iv_index(ptr noundef %8, i64 noundef %9, ptr noundef %10)
  br i1 %11, label %28, label %12

12:                                               ; preds = %3
  %13 = load ptr, ptr %5, align 8, !tbaa !16
  %14 = getelementptr inbounds nuw %struct.rb_shape, ptr %13, i32 0, i32 7
  %15 = load ptr, ptr %14, align 8, !tbaa !58
  %16 = icmp ne ptr %15, null
  br i1 %16, label %17, label %23

17:                                               ; preds = %12
  %18 = load ptr, ptr %5, align 8, !tbaa !16
  %19 = getelementptr inbounds nuw %struct.rb_shape, ptr %18, i32 0, i32 2
  %20 = load i32, ptr %19, align 8, !tbaa !40
  %21 = icmp uge i32 %20, 10
  br i1 %21, label %22, label %23

22:                                               ; preds = %17
  store i1 false, ptr %4, align 1
  br label %29

23:                                               ; preds = %17, %12
  %24 = load ptr, ptr %5, align 8, !tbaa !16
  %25 = load i64, ptr %6, align 8, !tbaa !26
  %26 = load ptr, ptr %7, align 8, !tbaa !56
  %27 = call zeroext i1 @shape_get_iv_index(ptr noundef %24, i64 noundef %25, ptr noundef %26)
  store i1 %27, ptr %4, align 1
  br label %29

28:                                               ; preds = %3
  store i1 true, ptr %4, align 1
  br label %29

29:                                               ; preds = %28, %23, %22
  %30 = load i1, ptr %4, align 1
  ret i1 %30
}