; Function Attrs: nounwind sspstrong uwtable
define hidden noundef zeroext i1 @rb_shape_get_iv_index(ptr noundef readonly captures(none) %0, i64 noundef %1, ptr noundef writeonly captures(none) %2) local_unnamed_addr #1 {
  %4 = getelementptr inbounds nuw i8, ptr %0, i64 32
  %5 = load ptr, ptr %4, align 8, !tbaa !55
  %.not.i = icmp eq ptr %5, null
  br i1 %.not.i, label %.thread, label %6

6:                                                ; preds = %3
  %7 = getelementptr inbounds nuw i8, ptr %0, i64 16
  %8 = load i32, ptr %7, align 8, !tbaa !40
  %9 = icmp ugt i32 %8, 9
  br i1 %9, label %.lr.ph.i.i, label %.thread

.lr.ph.i.i:                                       ; preds = %6
  %10 = load ptr, ptr @rb_shape_tree_ptr, align 8
  %11 = getelementptr inbounds nuw i8, ptr %10, i64 24
  br label %12

12:                                               ; preds = %tailrecurse.backedge.i.i, %.lr.ph.i.i
  %.tr16.i.i = phi ptr [ %5, %.lr.ph.i.i ], [ %23, %tailrecurse.backedge.i.i ]
  %13 = load i64, ptr %.tr16.i.i, align 8, !tbaa !56
  %14 = icmp eq i64 %13, %1
  br i1 %14, label %shape_cache_get_iv_index.exit, label %15

15:                                               ; preds = %12
  %16 = icmp ult i64 %1, %13
  br i1 %16, label %17, label %25

17:                                               ; preds = %15
  %18 = getelementptr i8, ptr %.tr16.i.i, i64 16
  %.val.i.i = load i32, ptr %18, align 8, !tbaa !58
  %19 = icmp eq i32 %.val.i.i, 0
  br i1 %19, label %shape_get_iv_index.exit, label %tailrecurse.backedge.i.i

tailrecurse.backedge.i.i:                         ; preds = %25, %17
  %.val13.sink.i.i = phi i32 [ %.val13.i.i, %25 ], [ %.val.i.i, %17 ]
  %20 = load ptr, ptr %11, align 8, !tbaa !59
  %21 = add i32 %.val13.sink.i.i, -1
  %22 = zext i32 %21 to i64
  %23 = getelementptr %struct.redblack_node, ptr %20, i64 %22
  %24 = icmp eq ptr %23, null
  br i1 %24, label %shape_get_iv_index.exit, label %12

25:                                               ; preds = %15
  %26 = getelementptr i8, ptr %.tr16.i.i, i64 20
  %.val13.i.i = load i32, ptr %26, align 4, !tbaa !60
  %27 = icmp eq i32 %.val13.i.i, 0
  br i1 %27, label %shape_get_iv_index.exit, label %tailrecurse.backedge.i.i

shape_cache_get_iv_index.exit:                    ; preds = %12
  %28 = getelementptr i8, ptr %.tr16.i.i, i64 8
  %.val.i = load ptr, ptr %28, align 8, !tbaa !61
  %29 = ptrtoint ptr %.val.i to i64
  %30 = and i64 %29, -2
  %31 = inttoptr i64 %30 to ptr
  br label %shape_get_iv_index.exit.sink.split

.thread:                                          ; preds = %6, %3
  %32 = getelementptr inbounds nuw i8, ptr %0, i64 28
  %33 = load i32, ptr %32, align 4, !tbaa !20
  %.not16.i = icmp eq i32 %33, -1
  br i1 %.not16.i, label %shape_get_iv_index.exit, label %.lr.ph.i

.lr.ph.i:                                         ; preds = %.thread
  %34 = load ptr, ptr @rb_shape_tree_ptr, align 8
  br label %35

35:                                               ; preds = %44, %.lr.ph.i
  %36 = phi i32 [ %33, %.lr.ph.i ], [ %49, %44 ]
  %.01017.i = phi ptr [ %0, %.lr.ph.i ], [ %47, %44 ]
  %37 = getelementptr inbounds nuw i8, ptr %.01017.i, i64 8
  %38 = load i64, ptr %37, align 8, !tbaa !42
  %39 = icmp eq i64 %38, %1
  br i1 %39, label %40, label %44

40:                                               ; preds = %35
  %41 = getelementptr inbounds nuw i8, ptr %.01017.i, i64 24
  %42 = load i8, ptr %41, align 8, !tbaa !27
  switch i8 %42, label %44 [
    i8 1, label %shape_get_iv_index.exit.sink.split
    i8 0, label %shape_get_iv_index.exit
    i8 3, label %shape_get_iv_index.exit
    i8 4, label %43
    i8 2, label %43
  ]

43:                                               ; preds = %40, %40
  tail call void (ptr, ...) @rb_bug(ptr noundef nonnull @.str.5) #16
  unreachable

44:                                               ; preds = %40, %35
  %45 = load ptr, ptr %34, align 8, !tbaa !16
  %46 = zext i32 %36 to i64
  %47 = getelementptr %struct.rb_shape, ptr %45, i64 %46
  %48 = getelementptr inbounds nuw i8, ptr %47, i64 28
  %49 = load i32, ptr %48, align 4, !tbaa !20
  %.not.i8 = icmp eq i32 %49, -1
  br i1 %.not.i8, label %shape_get_iv_index.exit, label %35, !llvm.loop !62

shape_get_iv_index.exit.sink.split:               ; preds = %40, %shape_cache_get_iv_index.exit
  %.01017.i.lcssa.sink = phi ptr [ %31, %shape_cache_get_iv_index.exit ], [ %.01017.i, %40 ]
  %50 = getelementptr inbounds nuw i8, ptr %.01017.i.lcssa.sink, i64 16
  %51 = load i32, ptr %50, align 8, !tbaa !40
  %52 = add i32 %51, -1
  store i32 %52, ptr %2, align 4, !tbaa !54
  br label %shape_get_iv_index.exit

shape_get_iv_index.exit:                          ; preds = %tailrecurse.backedge.i.i, %17, %25, %44, %40, %40, %shape_get_iv_index.exit.sink.split, %.thread
  %.0 = phi i1 [ false, %.thread ], [ true, %shape_get_iv_index.exit.sink.split ], [ false, %40 ], [ false, %40 ], [ false, %44 ], [ false, %25 ], [ false, %17 ], [ false, %tailrecurse.backedge.i.i ]
  ret i1 %.0
}